target datalayout = "e-m:e-p270:32:32-p271:32:32-p272:64:64-i64:64-i128:128-f80:128-n8:16:32:64-S128"
target triple = "x86_64-pc-linux-gnu"

%struct.t_methoddata_same = type { %union.anon.0, i32, %union.anon.1, ptr, i8 }
%union.anon.0 = type { ptr }
%union.anon.1 = type { ptr }

; Function Attrs: mustprogress uwtable
define internal void @_ZL19init_frame_same_intRKN3gmx20SelMethodEvalContextEPv(ptr noundef nonnull align 8 dereferenceable(24) %0, ptr noundef %1) #0 {
  %3 = alloca ptr, align 8
  %4 = alloca ptr, align 8
  %5 = alloca ptr, align 8
  %6 = alloca i32, align 4
  %7 = alloca i32, align 4
  store ptr %0, ptr %3, align 8
  store ptr %1, ptr %4, align 8
  %8 = load ptr, ptr %4, align 8
  store ptr %8, ptr %5, align 8
  %9 = load ptr, ptr %5, align 8
  %10 = getelementptr inbounds %struct.t_methoddata_same, ptr %9, i32 0, i32 4
  store i8 1, ptr %10, align 8
  %11 = load ptr, ptr %5, align 8
  %12 = getelementptr inbounds %struct.t_methoddata_same, ptr %11, i32 0, i32 1
  %13 = load i32, ptr %12, align 8
  %14 = icmp eq i32 %13, 0
  br i1 %14, label %15, label %16

15:                                               ; preds = %2
  br label %142

16:                                               ; preds = %2
  store i32 1, ptr %6, align 4
  store i32 0, ptr %7, align 4
  br label %17

17:                                               ; preds = %75, %16
  %18 = load i32, ptr %6, align 4
  %19 = load ptr, ptr %5, align 8
  %20 = getelementptr inbounds %struct.t_methoddata_same, ptr %19, i32 0, i32 1
  %21 = load i32, ptr %20, align 8
  %22 = icmp slt i32 %18, %21
  br i1 %22, label %23, label %78

23:                                               ; preds = %17
  %24 = load ptr, ptr %5, align 8
  %25 = getelementptr inbounds %struct.t_methoddata_same, ptr %24, i32 0, i32 2
  %26 = load ptr, ptr %25, align 8
  %27 = load i32, ptr %6, align 4
  %28 = sext i32 %27 to i64
  %29 = getelementptr inbounds i32, ptr %26, i64 %28
  %30 = load i32, ptr %29, align 4
  %31 = load ptr, ptr %5, align 8
  %32 = getelementptr inbounds %struct.t_methoddata_same, ptr %31, i32 0, i32 2
  %33 = load ptr, ptr %32, align 8
  %34 = load i32, ptr %7, align 4
  %35 = sext i32 %34 to i64
  %36 = getelementptr inbounds i32, ptr %33, i64 %35
  %37 = load i32, ptr %36, align 4
  %38 = icmp ne i32 %30, %37
  br i1 %38, label %39, label %74

39:                                               ; preds = %23
  %40 = load ptr, ptr %5, align 8
  %41 = getelementptr inbounds %struct.t_methoddata_same, ptr %40, i32 0, i32 2
  %42 = load ptr, ptr %41, align 8
  %43 = load i32, ptr %6, align 4
  %44 = sext i32 %43 to i64
  %45 = getelementptr inbounds i32, ptr %42, i64 %44
  %46 = load i32, ptr %45, align 4
  %47 = load ptr, ptr %5, align 8
  %48 = getelementptr inbounds %struct.t_methoddata_same, ptr %47, i32 0, i32 2
  %49 = load ptr, ptr %48, align 8
  %50 = load i32, ptr %7, align 4
  %51 = sext i32 %50 to i64
  %52 = getelementptr inbounds i32, ptr %49, i64 %51
  %53 = load i32, ptr %52, align 4
  %54 = icmp slt i32 %46, %53
  br i1 %54, label %55, label %58

55:                                               ; preds = %39
  %56 = load ptr, ptr %5, align 8
  %57 = getelementptr inbounds %struct.t_methoddata_same, ptr %56, i32 0, i32 4
  store i8 0, ptr %57, align 8
  br label %58

58:                                               ; preds = %55, %39
  %59 = load i32, ptr %7, align 4
  %60 = add nsw i32 %59, 1
  store i32 %60, ptr %7, align 4
  %61 = load ptr, ptr %5, align 8
  %62 = getelementptr inbounds %struct.t_methoddata_same, ptr %61, i32 0, i32 2
  %63 = load ptr, ptr %62, align 8
  %64 = load i32, ptr %6, align 4
  %65 = sext i32 %64 to i64
  %66 = getelementptr inbounds i32, ptr %63, i64 %65
  %67 = load i32, ptr %66, align 4
  %68 = load ptr, ptr %5, align 8
  %69 = getelementptr inbounds %struct.t_methoddata_same, ptr %68, i32 0, i32 2
  %70 = load ptr, ptr %69, align 8
  %71 = load i32, ptr %7, align 4
  %72 = sext i32 %71 to i64
  %73 = getelementptr inbounds i32, ptr %70, i64 %72
  store i32 %67, ptr %73, align 4
  br label %74

74:                                               ; preds = %58, %23
  br label %75

75:                                               ; preds = %74
  %76 = load i32, ptr %6, align 4
  %77 = add nsw i32 %76, 1
  store i32 %77, ptr %6, align 4
  br label %17, !llvm.loop !5

78:                                               ; preds = %17
  %79 = load i32, ptr %7, align 4
  %80 = add nsw i32 %79, 1
  %81 = load ptr, ptr %5, align 8
  %82 = getelementptr inbounds %struct.t_methoddata_same, ptr %81, i32 0, i32 1
  store i32 %80, ptr %82, align 8
  %83 = load ptr, ptr %5, align 8
  %84 = getelementptr inbounds %struct.t_methoddata_same, ptr %83, i32 0, i32 4
  %85 = load i8, ptr %84, align 8
  %86 = trunc i8 %85 to i1
  br i1 %86, label %142, label %87

87:                                               ; preds = %78
  %88 = load ptr, ptr %5, align 8
  %89 = getelementptr inbounds %struct.t_methoddata_same, ptr %88, i32 0, i32 2
  %90 = load ptr, ptr %89, align 8
  %91 = load ptr, ptr %5, align 8
  %92 = getelementptr inbounds %struct.t_methoddata_same, ptr %91, i32 0, i32 1
  %93 = load i32, ptr %92, align 8
  %94 = sext i32 %93 to i64
  call void @qsort(ptr noundef %90, i64 noundef %94, i64 noundef 4, ptr noundef @_ZL7cmp_intPKvS0_)
  store i32 1, ptr %6, align 4
  store i32 0, ptr %7, align 4
  br label %95

95:                                               ; preds = %134, %87
  %96 = load i32, ptr %6, align 4
  %97 = load ptr, ptr %5, align 8
  %98 = getelementptr inbounds %struct.t_methoddata_same, ptr %97, i32 0, i32 1
  %99 = load i32, ptr %98, align 8
  %100 = icmp slt i32 %96, %99
  br i1 %100, label %101, label %137

101:                                              ; preds = %95
  %102 = load ptr, ptr %5, align 8
  %103 = getelementptr inbounds %struct.t_methoddata_same, ptr %102, i32 0, i32 2
  %104 = load ptr, ptr %103, align 8
  %105 = load i32, ptr %6, align 4
  %106 = sext i32 %105 to i64
  %107 = getelementptr inbounds i32, ptr %104, i64 %106
  %108 = load i32, ptr %107, align 4
  %109 = load ptr, ptr %5, align 8
  %110 = getelementptr inbounds %struct.t_methoddata_same, ptr %109, i32 0, i32 2
  %111 = load ptr, ptr %110, align 8
  %112 = load i32, ptr %7, align 4
  %113 = sext i32 %112 to i64
  %114 = getelementptr inbounds i32, ptr %111, i64 %113
  %115 = load i32, ptr %114, align 4
  %116 = icmp ne i32 %108, %115
  br i1 %116, label %117, label %133

117:                                              ; preds = %101
  %118 = load i32, ptr %7, align 4
  %119 = add nsw i32 %118, 1
  store i32 %119, ptr %7, align 4
  %120 = load ptr, ptr %5, align 8
  %121 = getelementptr inbounds %struct.t_methoddata_same, ptr %120, i32 0, i32 2
  %122 = load ptr, ptr %121, align 8
  %123 = load i32, ptr %6, align 4
  %124 = sext i32 %123 to i64
  %125 = getelementptr inbounds i32, ptr %122, i64 %124
  %126 = load i32, ptr %125, align 4
  %127 = load ptr, ptr %5, align 8
  %128 = getelementptr inbounds %struct.t_methoddata_same, ptr %127, i32 0, i32 2
  %129 = load ptr, ptr %128, align 8
  %130 = load i32, ptr %7, align 4
  %131 = sext i32 %130 to i64
  %132 = getelementptr inbounds i32, ptr %129, i64 %131
  store i32 %126, ptr %132, align 4
  br label %133

133:                                              ; preds = %117, %101
  br label %134

134:                                              ; preds = %133
  %135 = load i32, ptr %6, align 4
  %136 = add nsw i32 %135, 1
  store i32 %136, ptr %6, align 4
  br label %95, !llvm.loop !7

137:                                              ; preds = %95
  %138 = load i32, ptr %7, align 4
  %139 = add nsw i32 %138, 1
  %140 = load ptr, ptr %5, align 8
  %141 = getelementptr inbounds %struct.t_methoddata_same, ptr %140, i32 0, i32 1
  store i32 %139, ptr %141, align 8
  br label %142

142:                                              ; preds = %137, %78, %15
  ret void
}