; Function Attrs: mustprogress nofree uwtable
define internal void @_ZL19init_frame_same_intRKN3gmx20SelMethodEvalContextEPv(ptr nocapture nonnull readnone align 8 %0, ptr nocapture noundef %1) #1 {
  %3 = getelementptr inbounds i8, ptr %1, i64 32
  store i8 1, ptr %3, align 8
  %4 = getelementptr inbounds i8, ptr %1, i64 8
  %5 = load i32, ptr %4, align 8
  %6 = icmp eq i32 %5, 0
  br i1 %6, label %53, label %.preheader

.preheader:                                       ; preds = %2
  %7 = icmp sgt i32 %5, 1
  br i1 %7, label %.lr.ph, label %.sink.split

.lr.ph:                                           ; preds = %.preheader
  %8 = getelementptr inbounds i8, ptr %1, i64 16
  br label %9

9:                                                ; preds = %.lr.ph, %25
  %10 = phi i32 [ %5, %.lr.ph ], [ %26, %25 ]
  %indvars.iv = phi i64 [ 1, %.lr.ph ], [ %indvars.iv.next, %25 ]
  %.045 = phi i32 [ 0, %.lr.ph ], [ %.1, %25 ]
  %11 = load ptr, ptr %8, align 8
  %12 = getelementptr inbounds i32, ptr %11, i64 %indvars.iv
  %13 = load i32, ptr %12, align 4
  %14 = sext i32 %.045 to i64
  %15 = getelementptr inbounds i32, ptr %11, i64 %14
  %16 = load i32, ptr %15, align 4
  %.not43 = icmp eq i32 %13, %16
  br i1 %.not43, label %25, label %17

17:                                               ; preds = %9
  %18 = icmp slt i32 %13, %16
  br i1 %18, label %19, label %20

19:                                               ; preds = %17
  store i8 0, ptr %3, align 8
  %.pre = load i32, ptr %12, align 4
  br label %20

20:                                               ; preds = %19, %17
  %21 = phi i32 [ %.pre, %19 ], [ %13, %17 ]
  %22 = add nsw i32 %.045, 1
  %23 = sext i32 %22 to i64
  %24 = getelementptr inbounds i32, ptr %11, i64 %23
  store i32 %21, ptr %24, align 4
  %.pre56 = load i32, ptr %4, align 8
  br label %25

25:                                               ; preds = %9, %20
  %26 = phi i32 [ %.pre56, %20 ], [ %10, %9 ]
  %.1 = phi i32 [ %22, %20 ], [ %.045, %9 ]
  %indvars.iv.next = add nuw nsw i64 %indvars.iv, 1
  %27 = sext i32 %26 to i64
  %28 = icmp slt i64 %indvars.iv.next, %27
  br i1 %28, label %9, label %._crit_edge, !llvm.loop !5

._crit_edge:                                      ; preds = %25
  %.pre57 = load i8, ptr %3, align 8
  %29 = add nsw i32 %.1, 1
  %30 = trunc i8 %.pre57 to i1
  store i32 %29, ptr %4, align 8
  br i1 %30, label %53, label %31

31:                                               ; preds = %._crit_edge
  %32 = getelementptr inbounds i8, ptr %1, i64 16
  %33 = load ptr, ptr %32, align 8
  %34 = sext i32 %29 to i64
  tail call void @qsort(ptr noundef %33, i64 noundef %34, i64 noundef 4, ptr noundef nonnull @_ZL7cmp_intPKvS0_)
  %35 = load i32, ptr %4, align 8
  %36 = icmp sgt i32 %35, 1
  br i1 %36, label %.lr.ph49, label %.sink.split

.lr.ph49:                                         ; preds = %31, %48
  %37 = phi i32 [ %49, %48 ], [ %35, %31 ]
  %indvars.iv53 = phi i64 [ %indvars.iv.next54, %48 ], [ 1, %31 ]
  %.247 = phi i32 [ %.3, %48 ], [ 0, %31 ]
  %38 = load ptr, ptr %32, align 8
  %39 = getelementptr inbounds i32, ptr %38, i64 %indvars.iv53
  %40 = load i32, ptr %39, align 4
  %41 = sext i32 %.247 to i64
  %42 = getelementptr inbounds i32, ptr %38, i64 %41
  %43 = load i32, ptr %42, align 4
  %.not = icmp eq i32 %40, %43
  br i1 %.not, label %48, label %44

44:                                               ; preds = %.lr.ph49
  %45 = add nsw i32 %.247, 1
  %46 = sext i32 %45 to i64
  %47 = getelementptr inbounds i32, ptr %38, i64 %46
  store i32 %40, ptr %47, align 4
  %.pre58 = load i32, ptr %4, align 8
  br label %48

48:                                               ; preds = %.lr.ph49, %44
  %49 = phi i32 [ %.pre58, %44 ], [ %37, %.lr.ph49 ]
  %.3 = phi i32 [ %45, %44 ], [ %.247, %.lr.ph49 ]
  %indvars.iv.next54 = add nuw nsw i64 %indvars.iv53, 1
  %50 = sext i32 %49 to i64
  %51 = icmp slt i64 %indvars.iv.next54, %50
  br i1 %51, label %.lr.ph49, label %._crit_edge50.loopexit, !llvm.loop !7

._crit_edge50.loopexit:                           ; preds = %48
  %52 = add nsw i32 %.3, 1
  br label %.sink.split

.sink.split:                                      ; preds = %31, %._crit_edge50.loopexit, %.preheader
  %.sink = phi i32 [ 1, %.preheader ], [ 1, %31 ], [ %52, %._crit_edge50.loopexit ]
  store i32 %.sink, ptr %4, align 8
  br label %53

53:                                               ; preds = %.sink.split, %2, %._crit_edge
  ret void
}